target datalayout = "e-m:e-p270:32:32-p271:32:32-p272:64:64-i64:64-i128:128-f80:128-n8:16:32:64-S128"
target triple = "x86_64-pc-linux-gnu"

; Function Attrs: mustprogress nounwind uwtable
define noundef i32 @_ZN4Cube11CornerIndexEiii(i32 noundef %0, i32 noundef %1, i32 noundef %2) #1 align 2 {
  %4 = alloca i32, align 4
  %5 = alloca i32, align 4
  %6 = alloca i32, align 4
  store i32 %0, ptr %4, align 4
  store i32 %1, ptr %5, align 4
  store i32 %2, ptr %6, align 4
  %7 = load i32, ptr %6, align 4
  %8 = shl i32 %7, 2
  %9 = load i32, ptr %5, align 4
  %10 = shl i32 %9, 1
  %11 = or i32 %8, %10
  %12 = load i32, ptr %4, align 4
  %13 = or i32 %11, %12
  ret i32 %13
}

; Function Attrs: mustprogress nounwind uwtable
define void @_ZN4Cube15FactorFaceIndexEiRiS0_S0_(i32 noundef %0, ptr noundef nonnull align 4 dereferenceable(4) %1, ptr noundef nonnull align 4 dereferenceable(4) %2, ptr noundef nonnull align 4 dereferenceable(4) %3) #1 align 2 {
  %5 = alloca i32, align 4
  %6 = alloca ptr, align 8
  %7 = alloca ptr, align 8
  %8 = alloca ptr, align 8
  store i32 %0, ptr %5, align 4
  store ptr %1, ptr %6, align 8
  store ptr %2, ptr %7, align 8
  store ptr %3, ptr %8, align 8
  %9 = load ptr, ptr %8, align 8
  store i32 0, ptr %9, align 4
  %10 = load ptr, ptr %7, align 8
  store i32 0, ptr %10, align 4
  %11 = load ptr, ptr %6, align 8
  store i32 0, ptr %11, align 4
  %12 = load i32, ptr %5, align 4
  switch i32 %12, label %25 [
    i32 0, label %13
    i32 1, label %15
    i32 2, label %17
    i32 3, label %19
    i32 4, label %21
    i32 5, label %23
  ]

13:                                               ; preds = %4
  %14 = load ptr, ptr %6, align 8
  store i32 -1, ptr %14, align 4
  br label %25

15:                                               ; preds = %4
  %16 = load ptr, ptr %6, align 8
  store i32 1, ptr %16, align 4
  br label %25

17:                                               ; preds = %4
  %18 = load ptr, ptr %7, align 8
  store i32 -1, ptr %18, align 4
  br label %25

19:                                               ; preds = %4
  %20 = load ptr, ptr %7, align 8
  store i32 1, ptr %20, align 4
  br label %25

21:                                               ; preds = %4
  %22 = load ptr, ptr %8, align 8
  store i32 -1, ptr %22, align 4
  br label %25

23:                                               ; preds = %4
  %24 = load ptr, ptr %8, align 8
  store i32 1, ptr %24, align 4
  br label %25

25:                                               ; preds = %23, %21, %19, %17, %15, %13, %4
  ret void
}

; Function Attrs: mustprogress nounwind uwtable
define noundef zeroext i8 @_ZN13MarchingCubes12GetFaceIndexEPKddi(ptr noundef %0, double noundef %1, i32 noundef %2) #1 align 2 {
  %4 = alloca ptr, align 8
  %5 = alloca double, align 8
  %6 = alloca i32, align 4
  %7 = alloca i32, align 4
  %8 = alloca i32, align 4
  %9 = alloca i32, align 4
  %10 = alloca i32, align 4
  %11 = alloca i32, align 4
  %12 = alloca i8, align 1
  %13 = alloca [2 x [2 x double]], align 16
  store ptr %0, ptr %4, align 8
  store double %1, ptr %5, align 8
  store i32 %2, ptr %6, align 4
  store i8 0, ptr %12, align 1
  %14 = load i32, ptr %6, align 4
  call void @_ZN4Cube15FactorFaceIndexEiRiS0_S0_(i32 noundef %14, ptr noundef nonnull align 4 dereferenceable(4) %9, ptr noundef nonnull align 4 dereferenceable(4) %10, ptr noundef nonnull align 4 dereferenceable(4) %11)
  %15 = load i32, ptr %9, align 4
  %16 = icmp slt i32 %15, 0
  br i1 %16, label %17, label %47

17:                                               ; preds = %3
  store i32 0, ptr %7, align 4
  br label %18

18:                                               ; preds = %43, %17
  %19 = load i32, ptr %7, align 4
  %20 = icmp slt i32 %19, 2
  br i1 %20, label %21, label %46

21:                                               ; preds = %18
  store i32 0, ptr %8, align 4
  br label %22

22:                                               ; preds = %39, %21
  %23 = load i32, ptr %8, align 4
  %24 = icmp slt i32 %23, 2
  br i1 %24, label %25, label %42

25:                                               ; preds = %22
  %26 = load ptr, ptr %4, align 8
  %27 = load i32, ptr %7, align 4
  %28 = load i32, ptr %8, align 4
  %29 = call noundef i32 @_ZN4Cube11CornerIndexEiii(i32 noundef 0, i32 noundef %27, i32 noundef %28)
  %30 = sext i32 %29 to i64
  %31 = getelementptr inbounds double, ptr %26, i64 %30
  %32 = load double, ptr %31, align 8
  %33 = load i32, ptr %7, align 4
  %34 = sext i32 %33 to i64
  %35 = getelementptr inbounds [2 x [2 x double]], ptr %13, i64 0, i64 %34
  %36 = load i32, ptr %8, align 4
  %37 = sext i32 %36 to i64
  %38 = getelementptr inbounds [2 x double], ptr %35, i64 0, i64 %37
  store double %32, ptr %38, align 8
  br label %39

39:                                               ; preds = %25
  %40 = load i32, ptr %8, align 4
  %41 = add nsw i32 %40, 1
  store i32 %41, ptr %8, align 4
  br label %22, !llvm.loop !11

42:                                               ; preds = %22
  br label %43

43:                                               ; preds = %42
  %44 = load i32, ptr %7, align 4
  %45 = add nsw i32 %44, 1
  store i32 %45, ptr %7, align 4
  br label %18, !llvm.loop !12

46:                                               ; preds = %18
  br label %217

47:                                               ; preds = %3
  %48 = load i32, ptr %9, align 4
  %49 = icmp sgt i32 %48, 0
  br i1 %49, label %50, label %80

50:                                               ; preds = %47
  store i32 0, ptr %7, align 4
  br label %51

51:                                               ; preds = %76, %50
  %52 = load i32, ptr %7, align 4
  %53 = icmp slt i32 %52, 2
  br i1 %53, label %54, label %79

54:                                               ; preds = %51
  store i32 0, ptr %8, align 4
  br label %55

55:                                               ; preds = %72, %54
  %56 = load i32, ptr %8, align 4
  %57 = icmp slt i32 %56, 2
  br i1 %57, label %58, label %75

58:                                               ; preds = %55
  %59 = load ptr, ptr %4, align 8
  %60 = load i32, ptr %7, align 4
  %61 = load i32, ptr %8, align 4
  %62 = call noundef i32 @_ZN4Cube11CornerIndexEiii(i32 noundef 1, i32 noundef %60, i32 noundef %61)
  %63 = sext i32 %62 to i64
  %64 = getelementptr inbounds double, ptr %59, i64 %63
  %65 = load double, ptr %64, align 8
  %66 = load i32, ptr %7, align 4
  %67 = sext i32 %66 to i64
  %68 = getelementptr inbounds [2 x [2 x double]], ptr %13, i64 0, i64 %67
  %69 = load i32, ptr %8, align 4
  %70 = sext i32 %69 to i64
  %71 = getelementptr inbounds [2 x double], ptr %68, i64 0, i64 %70
  store double %65, ptr %71, align 8
  br label %72

72:                                               ; preds = %58
  %73 = load i32, ptr %8, align 4
  %74 = add nsw i32 %73, 1
  store i32 %74, ptr %8, align 4
  br label %55, !llvm.loop !13

75:                                               ; preds = %55
  br label %76

76:                                               ; preds = %75
  %77 = load i32, ptr %7, align 4
  %78 = add nsw i32 %77, 1
  store i32 %78, ptr %7, align 4
  br label %51, !llvm.loop !14

79:                                               ; preds = %51
  br label %216

80:                                               ; preds = %47
  %81 = load i32, ptr %10, align 4
  %82 = icmp slt i32 %81, 0
  br i1 %82, label %83, label %113

83:                                               ; preds = %80
  store i32 0, ptr %7, align 4
  br label %84

84:                                               ; preds = %109, %83
  %85 = load i32, ptr %7, align 4
  %86 = icmp slt i32 %85, 2
  br i1 %86, label %87, label %112

87:                                               ; preds = %84
  store i32 0, ptr %8, align 4
  br label %88

88:                                               ; preds = %105, %87
  %89 = load i32, ptr %8, align 4
  %90 = icmp slt i32 %89, 2
  br i1 %90, label %91, label %108

91:                                               ; preds = %88
  %92 = load ptr, ptr %4, align 8
  %93 = load i32, ptr %7, align 4
  %94 = load i32, ptr %8, align 4
  %95 = call noundef i32 @_ZN4Cube11CornerIndexEiii(i32 noundef %93, i32 noundef 0, i32 noundef %94)
  %96 = sext i32 %95 to i64
  %97 = getelementptr inbounds double, ptr %92, i64 %96
  %98 = load double, ptr %97, align 8
  %99 = load i32, ptr %7, align 4
  %100 = sext i32 %99 to i64
  %101 = getelementptr inbounds [2 x [2 x double]], ptr %13, i64 0, i64 %100
  %102 = load i32, ptr %8, align 4
  %103 = sext i32 %102 to i64
  %104 = getelementptr inbounds [2 x double], ptr %101, i64 0, i64 %103
  store double %98, ptr %104, align 8
  br label %105

105:                                              ; preds = %91
  %106 = load i32, ptr %8, align 4
  %107 = add nsw i32 %106, 1
  store i32 %107, ptr %8, align 4
  br label %88, !llvm.loop !15

108:                                              ; preds = %88
  br label %109

109:                                              ; preds = %108
  %110 = load i32, ptr %7, align 4
  %111 = add nsw i32 %110, 1
  store i32 %111, ptr %7, align 4
  br label %84, !llvm.loop !16

112:                                              ; preds = %84
  br label %215

113:                                              ; preds = %80
  %114 = load i32, ptr %10, align 4
  %115 = icmp sgt i32 %114, 0
  br i1 %115, label %116, label %146

116:                                              ; preds = %113
  store i32 0, ptr %7, align 4
  br label %117

117:                                              ; preds = %142, %116
  %118 = load i32, ptr %7, align 4
  %119 = icmp slt i32 %118, 2
  br i1 %119, label %120, label %145

120:                                              ; preds = %117
  store i32 0, ptr %8, align 4
  br label %121

121:                                              ; preds = %138, %120
  %122 = load i32, ptr %8, align 4
  %123 = icmp slt i32 %122, 2
  br i1 %123, label %124, label %141

124:                                              ; preds = %121
  %125 = load ptr, ptr %4, align 8
  %126 = load i32, ptr %7, align 4
  %127 = load i32, ptr %8, align 4
  %128 = call noundef i32 @_ZN4Cube11CornerIndexEiii(i32 noundef %126, i32 noundef 1, i32 noundef %127)
  %129 = sext i32 %128 to i64
  %130 = getelementptr inbounds double, ptr %125, i64 %129
  %131 = load double, ptr %130, align 8
  %132 = load i32, ptr %7, align 4
  %133 = sext i32 %132 to i64
  %134 = getelementptr inbounds [2 x [2 x double]], ptr %13, i64 0, i64 %133
  %135 = load i32, ptr %8, align 4
  %136 = sext i32 %135 to i64
  %137 = getelementptr inbounds [2 x double], ptr %134, i64 0, i64 %136
  store double %131, ptr %137, align 8
  br label %138

138:                                              ; preds = %124
  %139 = load i32, ptr %8, align 4
  %140 = add nsw i32 %139, 1
  store i32 %140, ptr %8, align 4
  br label %121, !llvm.loop !17

141:                                              ; preds = %121
  br label %142

142:                                              ; preds = %141
  %143 = load i32, ptr %7, align 4
  %144 = add nsw i32 %143, 1
  store i32 %144, ptr %7, align 4
  br label %117, !llvm.loop !18

145:                                              ; preds = %117
  br label %214

146:                                              ; preds = %113
  %147 = load i32, ptr %11, align 4
  %148 = icmp slt i32 %147, 0
  br i1 %148, label %149, label %179

149:                                              ; preds = %146
  store i32 0, ptr %7, align 4
  br label %150

150:                                              ; preds = %175, %149
  %151 = load i32, ptr %7, align 4
  %152 = icmp slt i32 %151, 2
  br i1 %152, label %153, label %178

153:                                              ; preds = %150
  store i32 0, ptr %8, align 4
  br label %154

154:                                              ; preds = %171, %153
  %155 = load i32, ptr %8, align 4
  %156 = icmp slt i32 %155, 2
  br i1 %156, label %157, label %174

157:                                              ; preds = %154
  %158 = load ptr, ptr %4, align 8
  %159 = load i32, ptr %7, align 4
  %160 = load i32, ptr %8, align 4
  %161 = call noundef i32 @_ZN4Cube11CornerIndexEiii(i32 noundef %159, i32 noundef %160, i32 noundef 0)
  %162 = sext i32 %161 to i64
  %163 = getelementptr inbounds double, ptr %158, i64 %162
  %164 = load double, ptr %163, align 8
  %165 = load i32, ptr %7, align 4
  %166 = sext i32 %165 to i64
  %167 = getelementptr inbounds [2 x [2 x double]], ptr %13, i64 0, i64 %166
  %168 = load i32, ptr %8, align 4
  %169 = sext i32 %168 to i64
  %170 = getelementptr inbounds [2 x double], ptr %167, i64 0, i64 %169
  store double %164, ptr %170, align 8
  br label %171

171:                                              ; preds = %157
  %172 = load i32, ptr %8, align 4
  %173 = add nsw i32 %172, 1
  store i32 %173, ptr %8, align 4
  br label %154, !llvm.loop !19

174:                                              ; preds = %154
  br label %175

175:                                              ; preds = %174
  %176 = load i32, ptr %7, align 4
  %177 = add nsw i32 %176, 1
  store i32 %177, ptr %7, align 4
  br label %150, !llvm.loop !20

178:                                              ; preds = %150
  br label %213

179:                                              ; preds = %146
  %180 = load i32, ptr %11, align 4
  %181 = icmp sgt i32 %180, 0
  br i1 %181, label %182, label %212

182:                                              ; preds = %179
  store i32 0, ptr %7, align 4
  br label %183

183:                                              ; preds = %208, %182
  %184 = load i32, ptr %7, align 4
  %185 = icmp slt i32 %184, 2
  br i1 %185, label %186, label %211

186:                                              ; preds = %183
  store i32 0, ptr %8, align 4
  br label %187

187:                                              ; preds = %204, %186
  %188 = load i32, ptr %8, align 4
  %189 = icmp slt i32 %188, 2
  br i1 %189, label %190, label %207

190:                                              ; preds = %187
  %191 = load ptr, ptr %4, align 8
  %192 = load i32, ptr %7, align 4
  %193 = load i32, ptr %8, align 4
  %194 = call noundef i32 @_ZN4Cube11CornerIndexEiii(i32 noundef %192, i32 noundef %193, i32 noundef 1)
  %195 = sext i32 %194 to i64
  %196 = getelementptr inbounds double, ptr %191, i64 %195
  %197 = load double, ptr %196, align 8
  %198 = load i32, ptr %7, align 4
  %199 = sext i32 %198 to i64
  %200 = getelementptr inbounds [2 x [2 x double]], ptr %13, i64 0, i64 %199
  %201 = load i32, ptr %8, align 4
  %202 = sext i32 %201 to i64
  %203 = getelementptr inbounds [2 x double], ptr %200, i64 0, i64 %202
  store double %197, ptr %203, align 8
  br label %204

204:                                              ; preds = %190
  %205 = load i32, ptr %8, align 4
  %206 = add nsw i32 %205, 1
  store i32 %206, ptr %8, align 4
  br label %187, !llvm.loop !21

207:                                              ; preds = %187
  br label %208

208:                                              ; preds = %207
  %209 = load i32, ptr %7, align 4
  %210 = add nsw i32 %209, 1
  store i32 %210, ptr %7, align 4
  br label %183, !llvm.loop !22

211:                                              ; preds = %183
  br label %212

212:                                              ; preds = %211, %179
  br label %213

213:                                              ; preds = %212, %178
  br label %214

214:                                              ; preds = %213, %145
  br label %215

215:                                              ; preds = %214, %112
  br label %216

216:                                              ; preds = %215, %79
  br label %217

217:                                              ; preds = %216, %46
  %218 = getelementptr inbounds [2 x [2 x double]], ptr %13, i64 0, i64 0
  %219 = getelementptr inbounds [2 x double], ptr %218, i64 0, i64 0
  %220 = load double, ptr %219, align 16
  %221 = load double, ptr %5, align 8
  %222 = fcmp olt double %220, %221
  br i1 %222, label %223, label %228

223:                                              ; preds = %217
  %224 = load i8, ptr %12, align 1
  %225 = zext i8 %224 to i32
  %226 = or i32 %225, 1
  %227 = trunc i32 %226 to i8
  store i8 %227, ptr %12, align 1
  br label %228

228:                                              ; preds = %223, %217
  %229 = getelementptr inbounds [2 x [2 x double]], ptr %13, i64 0, i64 1
  %230 = getelementptr inbounds [2 x double], ptr %229, i64 0, i64 0
  %231 = load double, ptr %230, align 16
  %232 = load double, ptr %5, align 8
  %233 = fcmp olt double %231, %232
  br i1 %233, label %234, label %239

234:                                              ; preds = %228
  %235 = load i8, ptr %12, align 1
  %236 = zext i8 %235 to i32
  %237 = or i32 %236, 2
  %238 = trunc i32 %237 to i8
  store i8 %238, ptr %12, align 1
  br label %239

239:                                              ; preds = %234, %228
  %240 = getelementptr inbounds [2 x [2 x double]], ptr %13, i64 0, i64 1
  %241 = getelementptr inbounds [2 x double], ptr %240, i64 0, i64 1
  %242 = load double, ptr %241, align 8
  %243 = load double, ptr %5, align 8
  %244 = fcmp olt double %242, %243
  br i1 %244, label %245, label %250

245:                                              ; preds = %239
  %246 = load i8, ptr %12, align 1
  %247 = zext i8 %246 to i32
  %248 = or i32 %247, 4
  %249 = trunc i32 %248 to i8
  store i8 %249, ptr %12, align 1
  br label %250

250:                                              ; preds = %245, %239
  %251 = getelementptr inbounds [2 x [2 x double]], ptr %13, i64 0, i64 0
  %252 = getelementptr inbounds [2 x double], ptr %251, i64 0, i64 1
  %253 = load double, ptr %252, align 8
  %254 = load double, ptr %5, align 8
  %255 = fcmp olt double %253, %254
  br i1 %255, label %256, label %261

256:                                              ; preds = %250
  %257 = load i8, ptr %12, align 1
  %258 = zext i8 %257 to i32
  %259 = or i32 %258, 8
  %260 = trunc i32 %259 to i8
  store i8 %260, ptr %12, align 1
  br label %261

261:                                              ; preds = %256, %250
  %262 = load i8, ptr %12, align 1
  ret i8 %262
}